; Function Attrs: inlinehint mustprogress optsize uwtable
define internal noundef nonnull ptr @_ZZN8nanobind6detail11func_createILb1ELb1EZNS_6class_IZL38nanobind_init_test_stl_bind_vector_extRNS_7module_EE2ElJEE6def_rwIS5_iJEEERS6_PKcMT_T0_DpRKT1_EUlRS5_OiE_vJSI_SJ_EJLm0ELm1EEJNS_9is_methodEEEEP7_objectOT1_PFT2_DpT3_ESt16integer_sequenceImJXspT4_EEEDpRKT5_ENUlPvPSN_PhNS_9rv_policyEPNS0_12cleanup_listEE_8__invokeES11_S12_S13_S14_S16_(ptr noundef readonly captures(none) %0, ptr noundef readonly captures(none) %1, ptr noundef readonly captures(none) %2, i32 %3, ptr noundef %4) #12 align 2 {
  %6 = alloca %"struct.nanobind::detail::tuple.399", align 8
  call void @llvm.lifetime.start.p0(i64 16, ptr nonnull %6) #26
  %7 = getelementptr inbounds nuw i8, ptr %6, i64 8
  %8 = load ptr, ptr %1, align 8, !tbaa !89
  %9 = load i8, ptr %2, align 1, !tbaa !34
  %10 = call noundef zeroext i1 @_ZN8nanobind6detail11nb_type_getEPKSt9type_infoP7_objecthPNS0_12cleanup_listEPPv(ptr noundef nonnull @_ZTIZL38nanobind_init_test_stl_bind_vector_extRN8nanobind7module_EE2El, ptr noundef %8, i8 noundef zeroext %9, ptr noundef %4, ptr noundef nonnull align 8 dereferenceable(8) %7) #27
  br i1 %10, label %11, label %_ZZN8nanobind6detail11func_createILb1ELb1EZNS_6class_IZL38nanobind_init_test_stl_bind_vector_extRNS_7module_EE2ElJEE6def_rwIS5_iJEEERS6_PKcMT_T0_DpRKT1_EUlRS5_OiE_vJSI_SJ_EJLm0ELm1EEJNS_9is_methodEEEEP7_objectOT1_PFT2_DpT3_ESt16integer_sequenceImJXspT4_EEEDpRKT5_ENKUlPvPSN_PhNS_9rv_policyEPNS0_12cleanup_listEE_clES11_S12_S13_S14_S16_.exit

11:                                               ; preds = %5
  %12 = getelementptr inbounds nuw i8, ptr %1, i64 8
  %13 = load ptr, ptr %12, align 8, !tbaa !89
  %14 = getelementptr inbounds nuw i8, ptr %2, i64 1
  %15 = load i8, ptr %14, align 1, !tbaa !34
  %16 = call noundef zeroext i1 @_ZN8nanobind6detail8load_i32EP7_objecthPi(ptr noundef %13, i8 noundef zeroext %15, ptr noundef nonnull align 4 dereferenceable(4) %6) #27
  br i1 %16, label %17, label %_ZZN8nanobind6detail11func_createILb1ELb1EZNS_6class_IZL38nanobind_init_test_stl_bind_vector_extRNS_7module_EE2ElJEE6def_rwIS5_iJEEERS6_PKcMT_T0_DpRKT1_EUlRS5_OiE_vJSI_SJ_EJLm0ELm1EEJNS_9is_methodEEEEP7_objectOT1_PFT2_DpT3_ESt16integer_sequenceImJXspT4_EEEDpRKT5_ENKUlPvPSN_PhNS_9rv_policyEPNS0_12cleanup_listEE_clES11_S12_S13_S14_S16_.exit

17:                                               ; preds = %11
  %18 = load ptr, ptr %7, align 8, !tbaa !229
  call void @_ZN8nanobind6detail27raise_next_overload_if_nullEPv(ptr noundef %18) #25
  %19 = load ptr, ptr %7, align 8, !tbaa !229
  %.val = load i64, ptr %0, align 8, !tbaa !239
  %.val4 = load i32, ptr %6, align 8, !tbaa !47
  %20 = getelementptr inbounds i8, ptr %19, i64 %.val
  store i32 %.val4, ptr %20, align 4, !tbaa !47
  %21 = load i64, ptr @_Py_NoneStruct, align 8, !tbaa !41
  %22 = add nsw i64 %21, 1
  store i64 %22, ptr @_Py_NoneStruct, align 8, !tbaa !41
  br label %_ZZN8nanobind6detail11func_createILb1ELb1EZNS_6class_IZL38nanobind_init_test_stl_bind_vector_extRNS_7module_EE2ElJEE6def_rwIS5_iJEEERS6_PKcMT_T0_DpRKT1_EUlRS5_OiE_vJSI_SJ_EJLm0ELm1EEJNS_9is_methodEEEEP7_objectOT1_PFT2_DpT3_ESt16integer_sequenceImJXspT4_EEEDpRKT5_ENKUlPvPSN_PhNS_9rv_policyEPNS0_12cleanup_listEE_clES11_S12_S13_S14_S16_.exit

_ZZN8nanobind6detail11func_createILb1ELb1EZNS_6class_IZL38nanobind_init_test_stl_bind_vector_extRNS_7module_EE2ElJEE6def_rwIS5_iJEEERS6_PKcMT_T0_DpRKT1_EUlRS5_OiE_vJSI_SJ_EJLm0ELm1EEJNS_9is_methodEEEEP7_objectOT1_PFT2_DpT3_ESt16integer_sequenceImJXspT4_EEEDpRKT5_ENKUlPvPSN_PhNS_9rv_policyEPNS0_12cleanup_listEE_clES11_S12_S13_S14_S16_.exit: ; preds = %5, %11, %17
  %.0.i = phi ptr [ @_Py_NoneStruct, %17 ], [ inttoptr (i64 1 to ptr), %11 ], [ inttoptr (i64 1 to ptr), %5 ]
  call void @llvm.lifetime.end.p0(i64 16, ptr nonnull %6) #26
  ret ptr %.0.i
}